	.file	"sum.c"
	.text
	.globl	plus
	.type	plus, @function
plus:
.LFB20:
	.cfi_startproc
	leaq	(%rdi,%rsi), %rax
	ret
	.cfi_endproc
.LFE20:
	.size	plus, .-plus
	.globl	sumstore
	.type	sumstore, @function
sumstore:
.LFB21:
	.cfi_startproc
	pushq	%rbx
	.cfi_def_cfa_offset 16
	.cfi_offset 3, -16
	movq	%rdx, %rbx
	call	plus
	movq	%rax, (%rbx)
	popq	%rbx
	.cfi_def_cfa_offset 8
	ret
	.cfi_endproc
.LFE21:
	.size	sumstore, .-sumstore
	.section	.rodata.str1.1,"aMS",@progbits,1
.LC0:
	.string	"%ld + %ld --> %ldd\n"
	.text
	.globl	main
	.type	main, @function
main:
.LFB22:
	.cfi_startproc
	pushq	%rbp
	.cfi_def_cfa_offset 16
	.cfi_offset 6, -16
	pushq	%rbx
	.cfi_def_cfa_offset 24
	.cfi_offset 3, -24
	subq	$24, %rsp
	.cfi_def_cfa_offset 48
	movq	%rsi, %rbp
	movq	8(%rsi), %rdi
	movl	$10, %edx
	movl	$0, %esi
	call	strtol
	movslq	%eax, %rbx
	movq	16(%rbp), %rdi
	movl	$10, %edx
	movl	$0, %esi
	call	strtol
	movslq	%eax, %rbp
	leaq	8(%rsp), %rdx
	movq	%rbp, %rsi
	movq	%rbx, %rdi
	call	sumstore
	movq	8(%rsp), %rcx
	movq	%rbp, %rdx
	movq	%rbx, %rsi
	movl	$.LC0, %edi
	movl	$0, %eax
	call	printf
	movl	$0, %eax
	addq	$24, %rsp
	.cfi_def_cfa_offset 24
	popq	%rbx
	.cfi_def_cfa_offset 16
	popq	%rbp
	.cfi_def_cfa_offset 8
	ret
	.cfi_endproc
.LFE22:
	.size	main, .-main
	.ident	"GCC: (GNU) 8.3.1 20190311 (Red Hat 8.3.1-3)"
	.section	.note.GNU-stack,"",@progbits
